   1                     ; C Compiler for STM8 (COSMIC Software)
   2                     ; Parser V4.12.9 - 19 Apr 2023
   3                     ; Generator (Limited) V4.5.6 - 18 Jul 2023
  52                     .const:	section	.text
  53  0000               L6:
  54  0000 00003317      	dc.l	13079
  55  0004               L01:
  56  0004 000033b5      	dc.l	13237
  57  0008               L21:
  58  0008 000033c5      	dc.l	13253
  59  000c               L41:
  60  000c 000035a0      	dc.l	13728
  61  0010               L61:
  62  0010 000033d8      	dc.l	13272
  63  0014               L02:
  64  0014 000033d6      	dc.l	13270
  65  0018               L22:
  66  0018 000033d4      	dc.l	13268
  67  001c               L42:
  68  001c 000033d2      	dc.l	13266
  69  0020               L62:
  70  0020 000033d0      	dc.l	13264
  71  0024               L03:
  72  0024 000033ce      	dc.l	13262
  73  0028               L23:
  74  0028 000033cc      	dc.l	13260
  75  002c               L43:
  76  002c 000033ca      	dc.l	13258
  77  0030               L63:
  78  0030 000033c8      	dc.l	13256
  79  0034               L04:
  80  0034 000033c7      	dc.l	13255
  81  0038               L24:
  82  0038 000033c6      	dc.l	13254
  83  003c               L44:
  84  003c 000033c4      	dc.l	13252
  85  0040               L64:
  86  0040 000033c3      	dc.l	13251
  87  0044               L05:
  88  0044 000033c2      	dc.l	13250
  89  0048               L25:
  90  0048 000033c1      	dc.l	13249
  91  004c               L45:
  92  004c 000033c0      	dc.l	13248
  93  0050               L65:
  94  0050 000033be      	dc.l	13246
  95  0054               L06:
  96  0054 000033bd      	dc.l	13245
  97  0058               L26:
  98  0058 000033bc      	dc.l	13244
  99  005c               L46:
 100  005c 000033ba      	dc.l	13242
 101  0060               L66:
 102  0060 000033b9      	dc.l	13241
 103  0064               L07:
 104  0064 000033b8      	dc.l	13240
 105  0068               L27:
 106  0068 000033b6      	dc.l	13238
 107  006c               L47:
 108  006c 00003348      	dc.l	13128
 109  0070               L67:
 110  0070 000033b4      	dc.l	13236
 111  0074               L001:
 112  0074 000033b3      	dc.l	13235
 113  0078               L201:
 114  0078 000033b2      	dc.l	13234
 115  007c               L401:
 116  007c 000033b1      	dc.l	13233
 117  0080               L601:
 118  0080 000033b0      	dc.l	13232
 119  0084               L011:
 120  0084 000033ac      	dc.l	13228
 121  0088               L211:
 122  0088 000033a4      	dc.l	13220
 123  008c               L411:
 124  008c 0000339c      	dc.l	13212
 125  0090               L611:
 126  0090 00003390      	dc.l	13200
 127  0094               L021:
 128  0094 0000337c      	dc.l	13180
 129  0098               L221:
 130  0098 00003360      	dc.l	13152
 131  009c               L421:
 132  009c 0000333c      	dc.l	13116
 133  00a0               L621:
 134  00a0 00003338      	dc.l	13112
 135  00a4               L031:
 136  00a4 00003330      	dc.l	13104
 137  00a8               L231:
 138  00a8 0000332c      	dc.l	13100
 139  00ac               L431:
 140  00ac 00003328      	dc.l	13096
 141  00b0               L631:
 142  00b0 00003324      	dc.l	13092
 143  00b4               L041:
 144  00b4 00003322      	dc.l	13090
 145  00b8               L241:
 146  00b8 00003320      	dc.l	13088
 147  00bc               L441:
 148  00bc 0000331e      	dc.l	13086
 149  00c0               L641:
 150  00c0 0000331c      	dc.l	13084
 151  00c4               L051:
 152  00c4 0000331a      	dc.l	13082
 153  00c8               L251:
 154  00c8 00003318      	dc.l	13080
 155  00cc               L451:
 156  00cc 00003294      	dc.l	12948
 157  00d0               L651:
 158  00d0 00003309      	dc.l	13065
 159  00d4               L061:
 160  00d4 00003316      	dc.l	13078
 161  00d8               L261:
 162  00d8 00003315      	dc.l	13077
 163  00dc               L461:
 164  00dc 00003314      	dc.l	13076
 165  00e0               L661:
 166  00e0 00003313      	dc.l	13075
 167  00e4               L071:
 168  00e4 00003312      	dc.l	13074
 169  00e8               L271:
 170  00e8 00003311      	dc.l	13073
 171  00ec               L471:
 172  00ec 00003310      	dc.l	13072
 173  00f0               L671:
 174  00f0 0000330f      	dc.l	13071
 175  00f4               L002:
 176  00f4 0000330e      	dc.l	13070
 177  00f8               L202:
 178  00f8 0000330d      	dc.l	13069
 179  00fc               L402:
 180  00fc 0000330c      	dc.l	13068
 181  0100               L602:
 182  0100 0000330b      	dc.l	13067
 183  0104               L012:
 184  0104 00003308      	dc.l	13064
 185  0108               L212:
 186  0108 00003306      	dc.l	13062
 187  010c               L412:
 188  010c 00003304      	dc.l	13060
 189  0110               L612:
 190  0110 000032fc      	dc.l	13052
 191  0114               L022:
 192  0114 000032f0      	dc.l	13040
 193  0118               L222:
 194  0118 000032e0      	dc.l	13024
 195  011c               L422:
 196  011c 000032d4      	dc.l	13012
 197  0120               L622:
 198  0120 000032c8      	dc.l	13000
 199  0124               L032:
 200  0124 000032bc      	dc.l	12988
 201  0128               L232:
 202  0128 000032ac      	dc.l	12972
 203  012c               L432:
 204  012c 000032a0      	dc.l	12960
 205  0130               L632:
 206  0130 000031b0      	dc.l	12720
 207  0134               L042:
 208  0134 00003288      	dc.l	12936
 209  0138               L242:
 210  0138 0000327c      	dc.l	12924
 211  013c               L442:
 212  013c 00003270      	dc.l	12912
 213  0140               L642:
 214  0140 00003264      	dc.l	12900
 215  0144               L052:
 216  0144 00003254      	dc.l	12884
 217  0148               L252:
 218  0148 00003244      	dc.l	12868
 219  014c               L452:
 220  014c 0000322c      	dc.l	12844
 221  0150               L652:
 222  0150 0000321c      	dc.l	12828
 223  0154               L062:
 224  0154 0000320c      	dc.l	12812
 225  0158               L262:
 226  0158 000031f8      	dc.l	12792
 227  015c               L462:
 228  015c 000031e0      	dc.l	12768
 229  0160               L662:
 230  0160 000031c4      	dc.l	12740
 231  0164               L072:
 232  0164 000031ac      	dc.l	12716
 233  0168               L272:
 234  0168 000031a8      	dc.l	12712
 235  016c               L472:
 236  016c 000031a0      	dc.l	12704
 237  0170               L672:
 238  0170 00003198      	dc.l	12696
 239  0174               L003:
 240  0174 0000318c      	dc.l	12684
 241  0178               L203:
 242  0178 00003170      	dc.l	12656
 243  017c               L403:
 244  017c 00003124      	dc.l	12580
 245  0180               L603:
 246  0180 00003098      	dc.l	12440
 247  0184               L013:
 248  0184 00002ff0      	dc.l	12272
 249  0188               L213:
 250  0188 0000319e      	dc.l	12702
 251  018c               L413:
 252  018c 00002e14      	dc.l	11796
 253                     ; 3 uint8_t BAT_Percentgauge_Check(uint32_t BAT_P_Volt)
 253                     ; 4 {	
 254                     	scross	off
 255                     	switch	.text
 256  0000               _BAT_Percentgauge_Check:
 258       00000000      OFST:	set	0
 261                     ; 5 	if(BAT_P_Volt>=P_50)
 263  0000 96            	ldw	x,sp
 264  0001 1c0003        	addw	x,#OFST+3
 265  0004 cd0000        	call	c_ltor
 267  0007 ae0000        	ldw	x,#L6
 268  000a cd0000        	call	c_lcmp
 270  000d 2403          	jruge	L613
 271  000f cc03ea        	jp	L52
 272  0012               L613:
 273                     ; 7 			if(BAT_P_Volt>=P_75)
 275  0012 96            	ldw	x,sp
 276  0013 1c0003        	addw	x,#OFST+3
 277  0016 cd0000        	call	c_ltor
 279  0019 ae0004        	ldw	x,#L01
 280  001c cd0000        	call	c_lcmp
 282  001f 2403          	jruge	L023
 283  0021 cc0210        	jp	L72
 284  0024               L023:
 285                     ; 9 					if(BAT_P_Volt>=P_88)//88~100
 287  0024 96            	ldw	x,sp
 288  0025 1c0003        	addw	x,#OFST+3
 289  0028 cd0000        	call	c_ltor
 291  002b ae0008        	ldw	x,#L21
 292  002e cd0000        	call	c_lcmp
 294  0031 2403          	jruge	L223
 295  0033 cc0123        	jp	L13
 296  0036               L223:
 297                     ; 11 							if(BAT_P_Volt>=P_100){return 100;}
 299  0036 96            	ldw	x,sp
 300  0037 1c0003        	addw	x,#OFST+3
 301  003a cd0000        	call	c_ltor
 303  003d ae000c        	ldw	x,#L41
 304  0040 cd0000        	call	c_lcmp
 306  0043 2503          	jrult	L33
 309  0045 a664          	ld	a,#100
 312  0047 81            	ret
 313  0048               L33:
 314                     ; 12 							else if(BAT_P_Volt>=P_99){return 99;}
 316  0048 96            	ldw	x,sp
 317  0049 1c0003        	addw	x,#OFST+3
 318  004c cd0000        	call	c_ltor
 320  004f ae0010        	ldw	x,#L61
 321  0052 cd0000        	call	c_lcmp
 323  0055 2503          	jrult	L73
 326  0057 a663          	ld	a,#99
 329  0059 81            	ret
 330  005a               L73:
 331                     ; 13 							else if(BAT_P_Volt>=P_98){return 98;}
 333  005a 96            	ldw	x,sp
 334  005b 1c0003        	addw	x,#OFST+3
 335  005e cd0000        	call	c_ltor
 337  0061 ae0014        	ldw	x,#L02
 338  0064 cd0000        	call	c_lcmp
 340  0067 2503          	jrult	L34
 343  0069 a662          	ld	a,#98
 346  006b 81            	ret
 347  006c               L34:
 348                     ; 14 							else if(BAT_P_Volt>=P_97){return 97;}
 350  006c 96            	ldw	x,sp
 351  006d 1c0003        	addw	x,#OFST+3
 352  0070 cd0000        	call	c_ltor
 354  0073 ae0018        	ldw	x,#L22
 355  0076 cd0000        	call	c_lcmp
 357  0079 2503          	jrult	L74
 360  007b a661          	ld	a,#97
 363  007d 81            	ret
 364  007e               L74:
 365                     ; 15 							else if(BAT_P_Volt>=P_96){return 96;}
 367  007e 96            	ldw	x,sp
 368  007f 1c0003        	addw	x,#OFST+3
 369  0082 cd0000        	call	c_ltor
 371  0085 ae001c        	ldw	x,#L42
 372  0088 cd0000        	call	c_lcmp
 374  008b 2503          	jrult	L35
 377  008d a660          	ld	a,#96
 380  008f 81            	ret
 381  0090               L35:
 382                     ; 16 							else if(BAT_P_Volt>=P_95){return 95;}
 384  0090 96            	ldw	x,sp
 385  0091 1c0003        	addw	x,#OFST+3
 386  0094 cd0000        	call	c_ltor
 388  0097 ae0020        	ldw	x,#L62
 389  009a cd0000        	call	c_lcmp
 391  009d 2503          	jrult	L75
 394  009f a65f          	ld	a,#95
 397  00a1 81            	ret
 398  00a2               L75:
 399                     ; 17 							else if(BAT_P_Volt>=P_94){return 94;}
 401  00a2 96            	ldw	x,sp
 402  00a3 1c0003        	addw	x,#OFST+3
 403  00a6 cd0000        	call	c_ltor
 405  00a9 ae0024        	ldw	x,#L03
 406  00ac cd0000        	call	c_lcmp
 408  00af 2503          	jrult	L36
 411  00b1 a65e          	ld	a,#94
 414  00b3 81            	ret
 415  00b4               L36:
 416                     ; 18 							else if(BAT_P_Volt>=P_93){return 93;}
 418  00b4 96            	ldw	x,sp
 419  00b5 1c0003        	addw	x,#OFST+3
 420  00b8 cd0000        	call	c_ltor
 422  00bb ae0028        	ldw	x,#L23
 423  00be cd0000        	call	c_lcmp
 425  00c1 2503          	jrult	L76
 428  00c3 a65d          	ld	a,#93
 431  00c5 81            	ret
 432  00c6               L76:
 433                     ; 19 							else if(BAT_P_Volt>=P_92){return 92;}
 435  00c6 96            	ldw	x,sp
 436  00c7 1c0003        	addw	x,#OFST+3
 437  00ca cd0000        	call	c_ltor
 439  00cd ae002c        	ldw	x,#L43
 440  00d0 cd0000        	call	c_lcmp
 442  00d3 2503          	jrult	L37
 445  00d5 a65c          	ld	a,#92
 448  00d7 81            	ret
 449  00d8               L37:
 450                     ; 20 							else if(BAT_P_Volt>=P_91){return 91;}
 452  00d8 96            	ldw	x,sp
 453  00d9 1c0003        	addw	x,#OFST+3
 454  00dc cd0000        	call	c_ltor
 456  00df ae0030        	ldw	x,#L63
 457  00e2 cd0000        	call	c_lcmp
 459  00e5 2503          	jrult	L77
 462  00e7 a65b          	ld	a,#91
 465  00e9 81            	ret
 466  00ea               L77:
 467                     ; 21 							else if(BAT_P_Volt>=P_90){return 90;}	
 469  00ea 96            	ldw	x,sp
 470  00eb 1c0003        	addw	x,#OFST+3
 471  00ee cd0000        	call	c_ltor
 473  00f1 ae0034        	ldw	x,#L04
 474  00f4 cd0000        	call	c_lcmp
 476  00f7 2503          	jrult	L301
 479  00f9 a65a          	ld	a,#90
 482  00fb 81            	ret
 483  00fc               L301:
 484                     ; 22 							else if(BAT_P_Volt>=P_89){return 89;}
 486  00fc 96            	ldw	x,sp
 487  00fd 1c0003        	addw	x,#OFST+3
 488  0100 cd0000        	call	c_ltor
 490  0103 ae0038        	ldw	x,#L24
 491  0106 cd0000        	call	c_lcmp
 493  0109 2503          	jrult	L701
 496  010b a659          	ld	a,#89
 499  010d 81            	ret
 500  010e               L701:
 501                     ; 23 							else if(BAT_P_Volt>=P_88){return 88;}
 503  010e 96            	ldw	x,sp
 504  010f 1c0003        	addw	x,#OFST+3
 505  0112 cd0000        	call	c_ltor
 507  0115 ae0008        	ldw	x,#L21
 508  0118 cd0000        	call	c_lcmp
 510  011b 2403          	jruge	L423
 511  011d cc079d        	jp	L743
 512  0120               L423:
 515  0120 a658          	ld	a,#88
 518  0122 81            	ret
 519  0123               L13:
 520                     ; 27 							if(BAT_P_Volt>=P_87){return 87;}
 522  0123 96            	ldw	x,sp
 523  0124 1c0003        	addw	x,#OFST+3
 524  0127 cd0000        	call	c_ltor
 526  012a ae003c        	ldw	x,#L44
 527  012d cd0000        	call	c_lcmp
 529  0130 2503          	jrult	L711
 532  0132 a657          	ld	a,#87
 535  0134 81            	ret
 536  0135               L711:
 537                     ; 28 							else if(BAT_P_Volt>=P_86){return 86;}
 539  0135 96            	ldw	x,sp
 540  0136 1c0003        	addw	x,#OFST+3
 541  0139 cd0000        	call	c_ltor
 543  013c ae0040        	ldw	x,#L64
 544  013f cd0000        	call	c_lcmp
 546  0142 2503          	jrult	L321
 549  0144 a656          	ld	a,#86
 552  0146 81            	ret
 553  0147               L321:
 554                     ; 29 							else if(BAT_P_Volt>=P_85){return 85;}
 556  0147 96            	ldw	x,sp
 557  0148 1c0003        	addw	x,#OFST+3
 558  014b cd0000        	call	c_ltor
 560  014e ae0044        	ldw	x,#L05
 561  0151 cd0000        	call	c_lcmp
 563  0154 2503          	jrult	L721
 566  0156 a655          	ld	a,#85
 569  0158 81            	ret
 570  0159               L721:
 571                     ; 30 							else if(BAT_P_Volt>=P_84){return 84;}
 573  0159 96            	ldw	x,sp
 574  015a 1c0003        	addw	x,#OFST+3
 575  015d cd0000        	call	c_ltor
 577  0160 ae0048        	ldw	x,#L25
 578  0163 cd0000        	call	c_lcmp
 580  0166 2503          	jrult	L331
 583  0168 a654          	ld	a,#84
 586  016a 81            	ret
 587  016b               L331:
 588                     ; 31 							else if(BAT_P_Volt>=P_83){return 83;}
 590  016b 96            	ldw	x,sp
 591  016c 1c0003        	addw	x,#OFST+3
 592  016f cd0000        	call	c_ltor
 594  0172 ae004c        	ldw	x,#L45
 595  0175 cd0000        	call	c_lcmp
 597  0178 2503          	jrult	L731
 600  017a a653          	ld	a,#83
 603  017c 81            	ret
 604  017d               L731:
 605                     ; 32 							else if(BAT_P_Volt>=P_82){return 82;}
 607  017d 96            	ldw	x,sp
 608  017e 1c0003        	addw	x,#OFST+3
 609  0181 cd0000        	call	c_ltor
 611  0184 ae0050        	ldw	x,#L65
 612  0187 cd0000        	call	c_lcmp
 614  018a 2503          	jrult	L341
 617  018c a652          	ld	a,#82
 620  018e 81            	ret
 621  018f               L341:
 622                     ; 33 							else if(BAT_P_Volt>=P_81){return 81;}
 624  018f 96            	ldw	x,sp
 625  0190 1c0003        	addw	x,#OFST+3
 626  0193 cd0000        	call	c_ltor
 628  0196 ae0054        	ldw	x,#L06
 629  0199 cd0000        	call	c_lcmp
 631  019c 2503          	jrult	L741
 634  019e a651          	ld	a,#81
 637  01a0 81            	ret
 638  01a1               L741:
 639                     ; 34 							else if(BAT_P_Volt>=P_80){return 80;}
 641  01a1 96            	ldw	x,sp
 642  01a2 1c0003        	addw	x,#OFST+3
 643  01a5 cd0000        	call	c_ltor
 645  01a8 ae0058        	ldw	x,#L26
 646  01ab cd0000        	call	c_lcmp
 648  01ae 2503          	jrult	L351
 651  01b0 a650          	ld	a,#80
 654  01b2 81            	ret
 655  01b3               L351:
 656                     ; 35 							else if(BAT_P_Volt>=P_79){return 79;}
 658  01b3 96            	ldw	x,sp
 659  01b4 1c0003        	addw	x,#OFST+3
 660  01b7 cd0000        	call	c_ltor
 662  01ba ae005c        	ldw	x,#L46
 663  01bd cd0000        	call	c_lcmp
 665  01c0 2503          	jrult	L751
 668  01c2 a64f          	ld	a,#79
 671  01c4 81            	ret
 672  01c5               L751:
 673                     ; 36 							else if(BAT_P_Volt>=P_78){return 78;}
 675  01c5 96            	ldw	x,sp
 676  01c6 1c0003        	addw	x,#OFST+3
 677  01c9 cd0000        	call	c_ltor
 679  01cc ae0060        	ldw	x,#L66
 680  01cf cd0000        	call	c_lcmp
 682  01d2 2503          	jrult	L361
 685  01d4 a64e          	ld	a,#78
 688  01d6 81            	ret
 689  01d7               L361:
 690                     ; 37 							else if(BAT_P_Volt>=P_77){return 77;}
 692  01d7 96            	ldw	x,sp
 693  01d8 1c0003        	addw	x,#OFST+3
 694  01db cd0000        	call	c_ltor
 696  01de ae0064        	ldw	x,#L07
 697  01e1 cd0000        	call	c_lcmp
 699  01e4 2503          	jrult	L761
 702  01e6 a64d          	ld	a,#77
 705  01e8 81            	ret
 706  01e9               L761:
 707                     ; 38 							else if(BAT_P_Volt>=P_76){return 76;}
 709  01e9 96            	ldw	x,sp
 710  01ea 1c0003        	addw	x,#OFST+3
 711  01ed cd0000        	call	c_ltor
 713  01f0 ae0068        	ldw	x,#L27
 714  01f3 cd0000        	call	c_lcmp
 716  01f6 2503          	jrult	L371
 719  01f8 a64c          	ld	a,#76
 722  01fa 81            	ret
 723  01fb               L371:
 724                     ; 39 							else if(BAT_P_Volt>=P_75){return 75;}
 726  01fb 96            	ldw	x,sp
 727  01fc 1c0003        	addw	x,#OFST+3
 728  01ff cd0000        	call	c_ltor
 730  0202 ae0004        	ldw	x,#L01
 731  0205 cd0000        	call	c_lcmp
 733  0208 2403          	jruge	L623
 734  020a cc079d        	jp	L743
 735  020d               L623:
 738  020d a64b          	ld	a,#75
 741  020f 81            	ret
 742  0210               L72:
 743                     ; 44 					if(BAT_P_Volt>=P_63)//63~74
 745  0210 96            	ldw	x,sp
 746  0211 1c0003        	addw	x,#OFST+3
 747  0214 cd0000        	call	c_ltor
 749  0217 ae006c        	ldw	x,#L47
 750  021a cd0000        	call	c_lcmp
 752  021d 2403          	jruge	L033
 753  021f cc02fd        	jp	L302
 754  0222               L033:
 755                     ; 46 							if(BAT_P_Volt>=P_74){return 74;}
 757  0222 96            	ldw	x,sp
 758  0223 1c0003        	addw	x,#OFST+3
 759  0226 cd0000        	call	c_ltor
 761  0229 ae0070        	ldw	x,#L67
 762  022c cd0000        	call	c_lcmp
 764  022f 2503          	jrult	L502
 767  0231 a64a          	ld	a,#74
 770  0233 81            	ret
 771  0234               L502:
 772                     ; 47 							else if(BAT_P_Volt>=P_73){return 73;}
 774  0234 96            	ldw	x,sp
 775  0235 1c0003        	addw	x,#OFST+3
 776  0238 cd0000        	call	c_ltor
 778  023b ae0074        	ldw	x,#L001
 779  023e cd0000        	call	c_lcmp
 781  0241 2503          	jrult	L112
 784  0243 a649          	ld	a,#73
 787  0245 81            	ret
 788  0246               L112:
 789                     ; 48 							else if(BAT_P_Volt>=P_72){return 72;}
 791  0246 96            	ldw	x,sp
 792  0247 1c0003        	addw	x,#OFST+3
 793  024a cd0000        	call	c_ltor
 795  024d ae0078        	ldw	x,#L201
 796  0250 cd0000        	call	c_lcmp
 798  0253 2503          	jrult	L512
 801  0255 a648          	ld	a,#72
 804  0257 81            	ret
 805  0258               L512:
 806                     ; 49 							else if(BAT_P_Volt>=P_71){return 71;}
 808  0258 96            	ldw	x,sp
 809  0259 1c0003        	addw	x,#OFST+3
 810  025c cd0000        	call	c_ltor
 812  025f ae007c        	ldw	x,#L401
 813  0262 cd0000        	call	c_lcmp
 815  0265 2503          	jrult	L122
 818  0267 a647          	ld	a,#71
 821  0269 81            	ret
 822  026a               L122:
 823                     ; 50 							else if(BAT_P_Volt>=P_70){return 70;}
 825  026a 96            	ldw	x,sp
 826  026b 1c0003        	addw	x,#OFST+3
 827  026e cd0000        	call	c_ltor
 829  0271 ae0080        	ldw	x,#L601
 830  0274 cd0000        	call	c_lcmp
 832  0277 2503          	jrult	L522
 835  0279 a646          	ld	a,#70
 838  027b 81            	ret
 839  027c               L522:
 840                     ; 51 							else if(BAT_P_Volt>=P_69){return 69;}
 842  027c 96            	ldw	x,sp
 843  027d 1c0003        	addw	x,#OFST+3
 844  0280 cd0000        	call	c_ltor
 846  0283 ae0084        	ldw	x,#L011
 847  0286 cd0000        	call	c_lcmp
 849  0289 2503          	jrult	L132
 852  028b a645          	ld	a,#69
 855  028d 81            	ret
 856  028e               L132:
 857                     ; 52 							else if(BAT_P_Volt>=P_68){return 68;}
 859  028e 96            	ldw	x,sp
 860  028f 1c0003        	addw	x,#OFST+3
 861  0292 cd0000        	call	c_ltor
 863  0295 ae0088        	ldw	x,#L211
 864  0298 cd0000        	call	c_lcmp
 866  029b 2503          	jrult	L532
 869  029d a644          	ld	a,#68
 872  029f 81            	ret
 873  02a0               L532:
 874                     ; 53 							else if(BAT_P_Volt>=P_67){return 67;}
 876  02a0 96            	ldw	x,sp
 877  02a1 1c0003        	addw	x,#OFST+3
 878  02a4 cd0000        	call	c_ltor
 880  02a7 ae008c        	ldw	x,#L411
 881  02aa cd0000        	call	c_lcmp
 883  02ad 2503          	jrult	L142
 886  02af a643          	ld	a,#67
 889  02b1 81            	ret
 890  02b2               L142:
 891                     ; 54 							else if(BAT_P_Volt>=P_66){return 66;}
 893  02b2 96            	ldw	x,sp
 894  02b3 1c0003        	addw	x,#OFST+3
 895  02b6 cd0000        	call	c_ltor
 897  02b9 ae0090        	ldw	x,#L611
 898  02bc cd0000        	call	c_lcmp
 900  02bf 2503          	jrult	L542
 903  02c1 a642          	ld	a,#66
 906  02c3 81            	ret
 907  02c4               L542:
 908                     ; 55 							else if(BAT_P_Volt>=P_65){return 65;}
 910  02c4 96            	ldw	x,sp
 911  02c5 1c0003        	addw	x,#OFST+3
 912  02c8 cd0000        	call	c_ltor
 914  02cb ae0094        	ldw	x,#L021
 915  02ce cd0000        	call	c_lcmp
 917  02d1 2503          	jrult	L152
 920  02d3 a641          	ld	a,#65
 923  02d5 81            	ret
 924  02d6               L152:
 925                     ; 56 							else if(BAT_P_Volt>=P_64){return 64;}
 927  02d6 96            	ldw	x,sp
 928  02d7 1c0003        	addw	x,#OFST+3
 929  02da cd0000        	call	c_ltor
 931  02dd ae0098        	ldw	x,#L221
 932  02e0 cd0000        	call	c_lcmp
 934  02e3 2503          	jrult	L552
 937  02e5 a640          	ld	a,#64
 940  02e7 81            	ret
 941  02e8               L552:
 942                     ; 57 							else if(BAT_P_Volt>=P_63){return 63;}
 944  02e8 96            	ldw	x,sp
 945  02e9 1c0003        	addw	x,#OFST+3
 946  02ec cd0000        	call	c_ltor
 948  02ef ae006c        	ldw	x,#L47
 949  02f2 cd0000        	call	c_lcmp
 951  02f5 2403          	jruge	L233
 952  02f7 cc079d        	jp	L743
 953  02fa               L233:
 956  02fa a63f          	ld	a,#63
 959  02fc 81            	ret
 960  02fd               L302:
 961                     ; 61 							if(BAT_P_Volt>=P_62){return 62;}
 963  02fd 96            	ldw	x,sp
 964  02fe 1c0003        	addw	x,#OFST+3
 965  0301 cd0000        	call	c_ltor
 967  0304 ae009c        	ldw	x,#L421
 968  0307 cd0000        	call	c_lcmp
 970  030a 2503          	jrult	L562
 973  030c a63e          	ld	a,#62
 976  030e 81            	ret
 977  030f               L562:
 978                     ; 62 							else if(BAT_P_Volt>=P_61){return 61;}
 980  030f 96            	ldw	x,sp
 981  0310 1c0003        	addw	x,#OFST+3
 982  0313 cd0000        	call	c_ltor
 984  0316 ae00a0        	ldw	x,#L621
 985  0319 cd0000        	call	c_lcmp
 987  031c 2503          	jrult	L172
 990  031e a63d          	ld	a,#61
 993  0320 81            	ret
 994  0321               L172:
 995                     ; 63 							else if(BAT_P_Volt>=P_60){return 60;}
 997  0321 96            	ldw	x,sp
 998  0322 1c0003        	addw	x,#OFST+3
 999  0325 cd0000        	call	c_ltor
1001  0328 ae00a4        	ldw	x,#L031
1002  032b cd0000        	call	c_lcmp
1004  032e 2503          	jrult	L572
1007  0330 a63c          	ld	a,#60
1010  0332 81            	ret
1011  0333               L572:
1012                     ; 64 							else if(BAT_P_Volt>=P_59){return 59;}
1014  0333 96            	ldw	x,sp
1015  0334 1c0003        	addw	x,#OFST+3
1016  0337 cd0000        	call	c_ltor
1018  033a ae00a8        	ldw	x,#L231
1019  033d cd0000        	call	c_lcmp
1021  0340 2503          	jrult	L103
1024  0342 a63b          	ld	a,#59
1027  0344 81            	ret
1028  0345               L103:
1029                     ; 65 							else if(BAT_P_Volt>=P_58){return 58;}
1031  0345 96            	ldw	x,sp
1032  0346 1c0003        	addw	x,#OFST+3
1033  0349 cd0000        	call	c_ltor
1035  034c ae00ac        	ldw	x,#L431
1036  034f cd0000        	call	c_lcmp
1038  0352 2503          	jrult	L503
1041  0354 a63a          	ld	a,#58
1044  0356 81            	ret
1045  0357               L503:
1046                     ; 66 							else if(BAT_P_Volt>=P_57){return 57;}
1048  0357 96            	ldw	x,sp
1049  0358 1c0003        	addw	x,#OFST+3
1050  035b cd0000        	call	c_ltor
1052  035e ae00b0        	ldw	x,#L631
1053  0361 cd0000        	call	c_lcmp
1055  0364 2503          	jrult	L113
1058  0366 a639          	ld	a,#57
1061  0368 81            	ret
1062  0369               L113:
1063                     ; 67 							else if(BAT_P_Volt>=P_56){return 56;}
1065  0369 96            	ldw	x,sp
1066  036a 1c0003        	addw	x,#OFST+3
1067  036d cd0000        	call	c_ltor
1069  0370 ae00b4        	ldw	x,#L041
1070  0373 cd0000        	call	c_lcmp
1072  0376 2503          	jrult	L513
1075  0378 a638          	ld	a,#56
1078  037a 81            	ret
1079  037b               L513:
1080                     ; 68 							else if(BAT_P_Volt>=P_55){return 55;}
1082  037b 96            	ldw	x,sp
1083  037c 1c0003        	addw	x,#OFST+3
1084  037f cd0000        	call	c_ltor
1086  0382 ae00b8        	ldw	x,#L241
1087  0385 cd0000        	call	c_lcmp
1089  0388 2503          	jrult	L123
1092  038a a637          	ld	a,#55
1095  038c 81            	ret
1096  038d               L123:
1097                     ; 69 							else if(BAT_P_Volt>=P_54){return 54;}
1099  038d 96            	ldw	x,sp
1100  038e 1c0003        	addw	x,#OFST+3
1101  0391 cd0000        	call	c_ltor
1103  0394 ae00bc        	ldw	x,#L441
1104  0397 cd0000        	call	c_lcmp
1106  039a 2503          	jrult	L523
1109  039c a636          	ld	a,#54
1112  039e 81            	ret
1113  039f               L523:
1114                     ; 70 							else if(BAT_P_Volt>=P_53){return 53;}
1116  039f 96            	ldw	x,sp
1117  03a0 1c0003        	addw	x,#OFST+3
1118  03a3 cd0000        	call	c_ltor
1120  03a6 ae00c0        	ldw	x,#L641
1121  03a9 cd0000        	call	c_lcmp
1123  03ac 2503          	jrult	L133
1126  03ae a635          	ld	a,#53
1129  03b0 81            	ret
1130  03b1               L133:
1131                     ; 71 							else if(BAT_P_Volt>=P_52){return 52;}
1133  03b1 96            	ldw	x,sp
1134  03b2 1c0003        	addw	x,#OFST+3
1135  03b5 cd0000        	call	c_ltor
1137  03b8 ae00c4        	ldw	x,#L051
1138  03bb cd0000        	call	c_lcmp
1140  03be 2503          	jrult	L533
1143  03c0 a634          	ld	a,#52
1146  03c2 81            	ret
1147  03c3               L533:
1148                     ; 72 							else if(BAT_P_Volt>=P_51){return 51;}
1150  03c3 96            	ldw	x,sp
1151  03c4 1c0003        	addw	x,#OFST+3
1152  03c7 cd0000        	call	c_ltor
1154  03ca ae00c8        	ldw	x,#L251
1155  03cd cd0000        	call	c_lcmp
1157  03d0 2503          	jrult	L143
1160  03d2 a633          	ld	a,#51
1163  03d4 81            	ret
1164  03d5               L143:
1165                     ; 73 							else if(BAT_P_Volt>=P_50){return 50;}
1167  03d5 96            	ldw	x,sp
1168  03d6 1c0003        	addw	x,#OFST+3
1169  03d9 cd0000        	call	c_ltor
1171  03dc ae0000        	ldw	x,#L6
1172  03df cd0000        	call	c_lcmp
1174  03e2 2403          	jruge	L433
1175  03e4 cc079d        	jp	L743
1176  03e7               L433:
1179  03e7 a632          	ld	a,#50
1182  03e9 81            	ret
1183  03ea               L52:
1184                     ; 79 			if(BAT_P_Volt>=P_25)
1186  03ea 96            	ldw	x,sp
1187  03eb 1c0003        	addw	x,#OFST+3
1188  03ee cd0000        	call	c_ltor
1190  03f1 ae00cc        	ldw	x,#L451
1191  03f4 cd0000        	call	c_lcmp
1193  03f7 2403          	jruge	L633
1194  03f9 cc05d6        	jp	L153
1195  03fc               L633:
1196                     ; 81 					if(BAT_P_Volt>=P_37)//37~49
1198  03fc 96            	ldw	x,sp
1199  03fd 1c0003        	addw	x,#OFST+3
1200  0400 cd0000        	call	c_ltor
1202  0403 ae00d0        	ldw	x,#L651
1203  0406 cd0000        	call	c_lcmp
1205  0409 2403          	jruge	L043
1206  040b cc04fb        	jp	L353
1207  040e               L043:
1208                     ; 83 							if(BAT_P_Volt>=P_49){return 49;}
1210  040e 96            	ldw	x,sp
1211  040f 1c0003        	addw	x,#OFST+3
1212  0412 cd0000        	call	c_ltor
1214  0415 ae00d4        	ldw	x,#L061
1215  0418 cd0000        	call	c_lcmp
1217  041b 2503          	jrult	L553
1220  041d a631          	ld	a,#49
1223  041f 81            	ret
1224  0420               L553:
1225                     ; 84 							else if(BAT_P_Volt>=P_48){return 48;}
1227  0420 96            	ldw	x,sp
1228  0421 1c0003        	addw	x,#OFST+3
1229  0424 cd0000        	call	c_ltor
1231  0427 ae00d8        	ldw	x,#L261
1232  042a cd0000        	call	c_lcmp
1234  042d 2503          	jrult	L163
1237  042f a630          	ld	a,#48
1240  0431 81            	ret
1241  0432               L163:
1242                     ; 85 							else if(BAT_P_Volt>=P_47){return 47;}
1244  0432 96            	ldw	x,sp
1245  0433 1c0003        	addw	x,#OFST+3
1246  0436 cd0000        	call	c_ltor
1248  0439 ae00dc        	ldw	x,#L461
1249  043c cd0000        	call	c_lcmp
1251  043f 2503          	jrult	L563
1254  0441 a62f          	ld	a,#47
1257  0443 81            	ret
1258  0444               L563:
1259                     ; 86 							else if(BAT_P_Volt>=P_46){return 46;}
1261  0444 96            	ldw	x,sp
1262  0445 1c0003        	addw	x,#OFST+3
1263  0448 cd0000        	call	c_ltor
1265  044b ae00e0        	ldw	x,#L661
1266  044e cd0000        	call	c_lcmp
1268  0451 2503          	jrult	L173
1271  0453 a62e          	ld	a,#46
1274  0455 81            	ret
1275  0456               L173:
1276                     ; 87 							else if(BAT_P_Volt>=P_45){return 45;}
1278  0456 96            	ldw	x,sp
1279  0457 1c0003        	addw	x,#OFST+3
1280  045a cd0000        	call	c_ltor
1282  045d ae00e4        	ldw	x,#L071
1283  0460 cd0000        	call	c_lcmp
1285  0463 2503          	jrult	L573
1288  0465 a62d          	ld	a,#45
1291  0467 81            	ret
1292  0468               L573:
1293                     ; 88 							else if(BAT_P_Volt>=P_44){return 44;}
1295  0468 96            	ldw	x,sp
1296  0469 1c0003        	addw	x,#OFST+3
1297  046c cd0000        	call	c_ltor
1299  046f ae00e8        	ldw	x,#L271
1300  0472 cd0000        	call	c_lcmp
1302  0475 2503          	jrult	L104
1305  0477 a62c          	ld	a,#44
1308  0479 81            	ret
1309  047a               L104:
1310                     ; 89 							else if(BAT_P_Volt>=P_43){return 43;}
1312  047a 96            	ldw	x,sp
1313  047b 1c0003        	addw	x,#OFST+3
1314  047e cd0000        	call	c_ltor
1316  0481 ae00ec        	ldw	x,#L471
1317  0484 cd0000        	call	c_lcmp
1319  0487 2503          	jrult	L504
1322  0489 a62b          	ld	a,#43
1325  048b 81            	ret
1326  048c               L504:
1327                     ; 90 							else if(BAT_P_Volt>=P_42){return 42;}
1329  048c 96            	ldw	x,sp
1330  048d 1c0003        	addw	x,#OFST+3
1331  0490 cd0000        	call	c_ltor
1333  0493 ae00f0        	ldw	x,#L671
1334  0496 cd0000        	call	c_lcmp
1336  0499 2503          	jrult	L114
1339  049b a62a          	ld	a,#42
1342  049d 81            	ret
1343  049e               L114:
1344                     ; 91 							else if(BAT_P_Volt>=P_41){return 41;}
1346  049e 96            	ldw	x,sp
1347  049f 1c0003        	addw	x,#OFST+3
1348  04a2 cd0000        	call	c_ltor
1350  04a5 ae00f4        	ldw	x,#L002
1351  04a8 cd0000        	call	c_lcmp
1353  04ab 2503          	jrult	L514
1356  04ad a629          	ld	a,#41
1359  04af 81            	ret
1360  04b0               L514:
1361                     ; 92 							else if(BAT_P_Volt>=P_40){return 40;}
1363  04b0 96            	ldw	x,sp
1364  04b1 1c0003        	addw	x,#OFST+3
1365  04b4 cd0000        	call	c_ltor
1367  04b7 ae00f8        	ldw	x,#L202
1368  04ba cd0000        	call	c_lcmp
1370  04bd 2503          	jrult	L124
1373  04bf a628          	ld	a,#40
1376  04c1 81            	ret
1377  04c2               L124:
1378                     ; 93 							else if(BAT_P_Volt>=P_39){return 39;}
1380  04c2 96            	ldw	x,sp
1381  04c3 1c0003        	addw	x,#OFST+3
1382  04c6 cd0000        	call	c_ltor
1384  04c9 ae00fc        	ldw	x,#L402
1385  04cc cd0000        	call	c_lcmp
1387  04cf 2503          	jrult	L524
1390  04d1 a627          	ld	a,#39
1393  04d3 81            	ret
1394  04d4               L524:
1395                     ; 94 							else if(BAT_P_Volt>=P_38){return 38;}
1397  04d4 96            	ldw	x,sp
1398  04d5 1c0003        	addw	x,#OFST+3
1399  04d8 cd0000        	call	c_ltor
1401  04db ae0100        	ldw	x,#L602
1402  04de cd0000        	call	c_lcmp
1404  04e1 2503          	jrult	L134
1407  04e3 a626          	ld	a,#38
1410  04e5 81            	ret
1411  04e6               L134:
1412                     ; 95 							else if(BAT_P_Volt>=P_37){return 37;}
1414  04e6 96            	ldw	x,sp
1415  04e7 1c0003        	addw	x,#OFST+3
1416  04ea cd0000        	call	c_ltor
1418  04ed ae00d0        	ldw	x,#L651
1419  04f0 cd0000        	call	c_lcmp
1421  04f3 2403          	jruge	L243
1422  04f5 cc079d        	jp	L743
1423  04f8               L243:
1426  04f8 a625          	ld	a,#37
1429  04fa 81            	ret
1430  04fb               L353:
1431                     ; 99 							if(BAT_P_Volt>=P_36){return 36;}
1433  04fb 96            	ldw	x,sp
1434  04fc 1c0003        	addw	x,#OFST+3
1435  04ff cd0000        	call	c_ltor
1437  0502 ae0104        	ldw	x,#L012
1438  0505 cd0000        	call	c_lcmp
1440  0508 2503          	jrult	L144
1443  050a a624          	ld	a,#36
1446  050c 81            	ret
1447  050d               L144:
1448                     ; 100 							else if(BAT_P_Volt>=P_35){return 35;}
1450  050d 96            	ldw	x,sp
1451  050e 1c0003        	addw	x,#OFST+3
1452  0511 cd0000        	call	c_ltor
1454  0514 ae0108        	ldw	x,#L212
1455  0517 cd0000        	call	c_lcmp
1457  051a 2503          	jrult	L544
1460  051c a623          	ld	a,#35
1463  051e 81            	ret
1464  051f               L544:
1465                     ; 101 							else if(BAT_P_Volt>=P_34){return 34;}
1467  051f 96            	ldw	x,sp
1468  0520 1c0003        	addw	x,#OFST+3
1469  0523 cd0000        	call	c_ltor
1471  0526 ae010c        	ldw	x,#L412
1472  0529 cd0000        	call	c_lcmp
1474  052c 2503          	jrult	L154
1477  052e a622          	ld	a,#34
1480  0530 81            	ret
1481  0531               L154:
1482                     ; 102 							else if(BAT_P_Volt>=P_33){return 33;}
1484  0531 96            	ldw	x,sp
1485  0532 1c0003        	addw	x,#OFST+3
1486  0535 cd0000        	call	c_ltor
1488  0538 ae0110        	ldw	x,#L612
1489  053b cd0000        	call	c_lcmp
1491  053e 2503          	jrult	L554
1494  0540 a621          	ld	a,#33
1497  0542 81            	ret
1498  0543               L554:
1499                     ; 103 							else if(BAT_P_Volt>=P_32){return 32;}
1501  0543 96            	ldw	x,sp
1502  0544 1c0003        	addw	x,#OFST+3
1503  0547 cd0000        	call	c_ltor
1505  054a ae0114        	ldw	x,#L022
1506  054d cd0000        	call	c_lcmp
1508  0550 2503          	jrult	L164
1511  0552 a620          	ld	a,#32
1514  0554 81            	ret
1515  0555               L164:
1516                     ; 104 							else if(BAT_P_Volt>=P_31){return 31;}
1518  0555 96            	ldw	x,sp
1519  0556 1c0003        	addw	x,#OFST+3
1520  0559 cd0000        	call	c_ltor
1522  055c ae0118        	ldw	x,#L222
1523  055f cd0000        	call	c_lcmp
1525  0562 2503          	jrult	L564
1528  0564 a61f          	ld	a,#31
1531  0566 81            	ret
1532  0567               L564:
1533                     ; 105 							else if(BAT_P_Volt>=P_30){return 30;}
1535  0567 96            	ldw	x,sp
1536  0568 1c0003        	addw	x,#OFST+3
1537  056b cd0000        	call	c_ltor
1539  056e ae011c        	ldw	x,#L422
1540  0571 cd0000        	call	c_lcmp
1542  0574 2503          	jrult	L174
1545  0576 a61e          	ld	a,#30
1548  0578 81            	ret
1549  0579               L174:
1550                     ; 106 							else if(BAT_P_Volt>=P_29){return 29;}
1552  0579 96            	ldw	x,sp
1553  057a 1c0003        	addw	x,#OFST+3
1554  057d cd0000        	call	c_ltor
1556  0580 ae0120        	ldw	x,#L622
1557  0583 cd0000        	call	c_lcmp
1559  0586 2503          	jrult	L574
1562  0588 a61d          	ld	a,#29
1565  058a 81            	ret
1566  058b               L574:
1567                     ; 107 							else if(BAT_P_Volt>=P_28){return 28;}
1569  058b 96            	ldw	x,sp
1570  058c 1c0003        	addw	x,#OFST+3
1571  058f cd0000        	call	c_ltor
1573  0592 ae0124        	ldw	x,#L032
1574  0595 cd0000        	call	c_lcmp
1576  0598 2503          	jrult	L105
1579  059a a61c          	ld	a,#28
1582  059c 81            	ret
1583  059d               L105:
1584                     ; 108 							else if(BAT_P_Volt>=P_27){return 27;}
1586  059d 96            	ldw	x,sp
1587  059e 1c0003        	addw	x,#OFST+3
1588  05a1 cd0000        	call	c_ltor
1590  05a4 ae0128        	ldw	x,#L232
1591  05a7 cd0000        	call	c_lcmp
1593  05aa 2503          	jrult	L505
1596  05ac a61b          	ld	a,#27
1599  05ae 81            	ret
1600  05af               L505:
1601                     ; 109 							else if(BAT_P_Volt>=P_26){return 26;}
1603  05af 96            	ldw	x,sp
1604  05b0 1c0003        	addw	x,#OFST+3
1605  05b3 cd0000        	call	c_ltor
1607  05b6 ae012c        	ldw	x,#L432
1608  05b9 cd0000        	call	c_lcmp
1610  05bc 2503          	jrult	L115
1613  05be a61a          	ld	a,#26
1616  05c0 81            	ret
1617  05c1               L115:
1618                     ; 110 							else if(BAT_P_Volt>=P_25){return 25;}
1620  05c1 96            	ldw	x,sp
1621  05c2 1c0003        	addw	x,#OFST+3
1622  05c5 cd0000        	call	c_ltor
1624  05c8 ae00cc        	ldw	x,#L451
1625  05cb cd0000        	call	c_lcmp
1627  05ce 2403          	jruge	L443
1628  05d0 cc079d        	jp	L743
1629  05d3               L443:
1632  05d3 a619          	ld	a,#25
1635  05d5 81            	ret
1636  05d6               L153:
1637                     ; 115 					if(BAT_P_Volt>=P_12)//12~24
1639  05d6 96            	ldw	x,sp
1640  05d7 1c0003        	addw	x,#OFST+3
1641  05da cd0000        	call	c_ltor
1643  05dd ae0130        	ldw	x,#L632
1644  05e0 cd0000        	call	c_lcmp
1646  05e3 2403          	jruge	L643
1647  05e5 cc06d5        	jp	L125
1648  05e8               L643:
1649                     ; 117 							if(BAT_P_Volt>=P_24){return 24;}
1651  05e8 96            	ldw	x,sp
1652  05e9 1c0003        	addw	x,#OFST+3
1653  05ec cd0000        	call	c_ltor
1655  05ef ae0134        	ldw	x,#L042
1656  05f2 cd0000        	call	c_lcmp
1658  05f5 2503          	jrult	L325
1661  05f7 a618          	ld	a,#24
1664  05f9 81            	ret
1665  05fa               L325:
1666                     ; 118 							else if(BAT_P_Volt>=P_23){return 23;}
1668  05fa 96            	ldw	x,sp
1669  05fb 1c0003        	addw	x,#OFST+3
1670  05fe cd0000        	call	c_ltor
1672  0601 ae0138        	ldw	x,#L242
1673  0604 cd0000        	call	c_lcmp
1675  0607 2503          	jrult	L725
1678  0609 a617          	ld	a,#23
1681  060b 81            	ret
1682  060c               L725:
1683                     ; 119 							else if(BAT_P_Volt>=P_22){return 22;}
1685  060c 96            	ldw	x,sp
1686  060d 1c0003        	addw	x,#OFST+3
1687  0610 cd0000        	call	c_ltor
1689  0613 ae013c        	ldw	x,#L442
1690  0616 cd0000        	call	c_lcmp
1692  0619 2503          	jrult	L335
1695  061b a616          	ld	a,#22
1698  061d 81            	ret
1699  061e               L335:
1700                     ; 120 							else if(BAT_P_Volt>=P_21){return 21;}
1702  061e 96            	ldw	x,sp
1703  061f 1c0003        	addw	x,#OFST+3
1704  0622 cd0000        	call	c_ltor
1706  0625 ae0140        	ldw	x,#L642
1707  0628 cd0000        	call	c_lcmp
1709  062b 2503          	jrult	L735
1712  062d a615          	ld	a,#21
1715  062f 81            	ret
1716  0630               L735:
1717                     ; 121 							else if(BAT_P_Volt>=P_20){return 20;}
1719  0630 96            	ldw	x,sp
1720  0631 1c0003        	addw	x,#OFST+3
1721  0634 cd0000        	call	c_ltor
1723  0637 ae0144        	ldw	x,#L052
1724  063a cd0000        	call	c_lcmp
1726  063d 2503          	jrult	L345
1729  063f a614          	ld	a,#20
1732  0641 81            	ret
1733  0642               L345:
1734                     ; 122 							else if(BAT_P_Volt>=P_19){return 19;}
1736  0642 96            	ldw	x,sp
1737  0643 1c0003        	addw	x,#OFST+3
1738  0646 cd0000        	call	c_ltor
1740  0649 ae0148        	ldw	x,#L252
1741  064c cd0000        	call	c_lcmp
1743  064f 2503          	jrult	L745
1746  0651 a613          	ld	a,#19
1749  0653 81            	ret
1750  0654               L745:
1751                     ; 123 							else if(BAT_P_Volt>=P_18){return 18;}
1753  0654 96            	ldw	x,sp
1754  0655 1c0003        	addw	x,#OFST+3
1755  0658 cd0000        	call	c_ltor
1757  065b ae014c        	ldw	x,#L452
1758  065e cd0000        	call	c_lcmp
1760  0661 2503          	jrult	L355
1763  0663 a612          	ld	a,#18
1766  0665 81            	ret
1767  0666               L355:
1768                     ; 124 							else if(BAT_P_Volt>=P_17){return 17;}
1770  0666 96            	ldw	x,sp
1771  0667 1c0003        	addw	x,#OFST+3
1772  066a cd0000        	call	c_ltor
1774  066d ae0150        	ldw	x,#L652
1775  0670 cd0000        	call	c_lcmp
1777  0673 2503          	jrult	L755
1780  0675 a611          	ld	a,#17
1783  0677 81            	ret
1784  0678               L755:
1785                     ; 125 							else if(BAT_P_Volt>=P_16){return 16;}
1787  0678 96            	ldw	x,sp
1788  0679 1c0003        	addw	x,#OFST+3
1789  067c cd0000        	call	c_ltor
1791  067f ae0154        	ldw	x,#L062
1792  0682 cd0000        	call	c_lcmp
1794  0685 2503          	jrult	L365
1797  0687 a610          	ld	a,#16
1800  0689 81            	ret
1801  068a               L365:
1802                     ; 126 							else if(BAT_P_Volt>=P_15){return 15;}
1804  068a 96            	ldw	x,sp
1805  068b 1c0003        	addw	x,#OFST+3
1806  068e cd0000        	call	c_ltor
1808  0691 ae0158        	ldw	x,#L262
1809  0694 cd0000        	call	c_lcmp
1811  0697 2503          	jrult	L765
1814  0699 a60f          	ld	a,#15
1817  069b 81            	ret
1818  069c               L765:
1819                     ; 127 							else if(BAT_P_Volt>=P_14){return 14;}
1821  069c 96            	ldw	x,sp
1822  069d 1c0003        	addw	x,#OFST+3
1823  06a0 cd0000        	call	c_ltor
1825  06a3 ae015c        	ldw	x,#L462
1826  06a6 cd0000        	call	c_lcmp
1828  06a9 2503          	jrult	L375
1831  06ab a60e          	ld	a,#14
1834  06ad 81            	ret
1835  06ae               L375:
1836                     ; 128 							else if(BAT_P_Volt>=P_13){return 13;}
1838  06ae 96            	ldw	x,sp
1839  06af 1c0003        	addw	x,#OFST+3
1840  06b2 cd0000        	call	c_ltor
1842  06b5 ae0160        	ldw	x,#L662
1843  06b8 cd0000        	call	c_lcmp
1845  06bb 2503          	jrult	L775
1848  06bd a60d          	ld	a,#13
1851  06bf 81            	ret
1852  06c0               L775:
1853                     ; 129 							else if(BAT_P_Volt>=P_12){return 12;}
1855  06c0 96            	ldw	x,sp
1856  06c1 1c0003        	addw	x,#OFST+3
1857  06c4 cd0000        	call	c_ltor
1859  06c7 ae0130        	ldw	x,#L632
1860  06ca cd0000        	call	c_lcmp
1862  06cd 2403          	jruge	L053
1863  06cf cc079d        	jp	L743
1864  06d2               L053:
1867  06d2 a60c          	ld	a,#12
1870  06d4 81            	ret
1871  06d5               L125:
1872                     ; 133 							if(BAT_P_Volt>=P_11){return 11;}
1874  06d5 96            	ldw	x,sp
1875  06d6 1c0003        	addw	x,#OFST+3
1876  06d9 cd0000        	call	c_ltor
1878  06dc ae0164        	ldw	x,#L072
1879  06df cd0000        	call	c_lcmp
1881  06e2 2503          	jrult	L706
1884  06e4 a60b          	ld	a,#11
1887  06e6 81            	ret
1888  06e7               L706:
1889                     ; 134 							else if(BAT_P_Volt>=P_10){return 10;}
1891  06e7 96            	ldw	x,sp
1892  06e8 1c0003        	addw	x,#OFST+3
1893  06eb cd0000        	call	c_ltor
1895  06ee ae0168        	ldw	x,#L272
1896  06f1 cd0000        	call	c_lcmp
1898  06f4 2503          	jrult	L316
1901  06f6 a60a          	ld	a,#10
1904  06f8 81            	ret
1905  06f9               L316:
1906                     ; 135 							else if(BAT_P_Volt>=P_9){return 9;}
1908  06f9 96            	ldw	x,sp
1909  06fa 1c0003        	addw	x,#OFST+3
1910  06fd cd0000        	call	c_ltor
1912  0700 ae016c        	ldw	x,#L472
1913  0703 cd0000        	call	c_lcmp
1915  0706 2503          	jrult	L716
1918  0708 a609          	ld	a,#9
1921  070a 81            	ret
1922  070b               L716:
1923                     ; 136 							else if(BAT_P_Volt>=P_8){return 8;}
1925  070b 96            	ldw	x,sp
1926  070c 1c0003        	addw	x,#OFST+3
1927  070f cd0000        	call	c_ltor
1929  0712 ae0170        	ldw	x,#L672
1930  0715 cd0000        	call	c_lcmp
1932  0718 2503          	jrult	L326
1935  071a a608          	ld	a,#8
1938  071c 81            	ret
1939  071d               L326:
1940                     ; 137 							else if(BAT_P_Volt>=P_7){return 7;}
1942  071d 96            	ldw	x,sp
1943  071e 1c0003        	addw	x,#OFST+3
1944  0721 cd0000        	call	c_ltor
1946  0724 ae0174        	ldw	x,#L003
1947  0727 cd0000        	call	c_lcmp
1949  072a 2503          	jrult	L726
1952  072c a607          	ld	a,#7
1955  072e 81            	ret
1956  072f               L726:
1957                     ; 138 							else if(BAT_P_Volt>=P_6){return 6;}
1959  072f 96            	ldw	x,sp
1960  0730 1c0003        	addw	x,#OFST+3
1961  0733 cd0000        	call	c_ltor
1963  0736 ae0178        	ldw	x,#L203
1964  0739 cd0000        	call	c_lcmp
1966  073c 2503          	jrult	L336
1969  073e a606          	ld	a,#6
1972  0740 81            	ret
1973  0741               L336:
1974                     ; 139 							else if(BAT_P_Volt>=P_5){return 5;}
1976  0741 96            	ldw	x,sp
1977  0742 1c0003        	addw	x,#OFST+3
1978  0745 cd0000        	call	c_ltor
1980  0748 ae017c        	ldw	x,#L403
1981  074b cd0000        	call	c_lcmp
1983  074e 2503          	jrult	L736
1986  0750 a605          	ld	a,#5
1989  0752 81            	ret
1990  0753               L736:
1991                     ; 140 							else if(BAT_P_Volt>=P_4){return 4;}
1993  0753 96            	ldw	x,sp
1994  0754 1c0003        	addw	x,#OFST+3
1995  0757 cd0000        	call	c_ltor
1997  075a ae0180        	ldw	x,#L603
1998  075d cd0000        	call	c_lcmp
2000  0760 2503          	jrult	L346
2003  0762 a604          	ld	a,#4
2006  0764 81            	ret
2007  0765               L346:
2008                     ; 141 							else if(BAT_P_Volt>=P_3){return 3;}
2010  0765 96            	ldw	x,sp
2011  0766 1c0003        	addw	x,#OFST+3
2012  0769 cd0000        	call	c_ltor
2014  076c ae0184        	ldw	x,#L013
2015  076f cd0000        	call	c_lcmp
2017  0772 2503          	jrult	L746
2020  0774 a603          	ld	a,#3
2023  0776 81            	ret
2024  0777               L746:
2025                     ; 142 							else if(BAT_P_Volt>=P_2){return 2;}
2027  0777 96            	ldw	x,sp
2028  0778 1c0003        	addw	x,#OFST+3
2029  077b cd0000        	call	c_ltor
2031  077e ae0188        	ldw	x,#L213
2032  0781 cd0000        	call	c_lcmp
2034  0784 2503          	jrult	L356
2037  0786 a602          	ld	a,#2
2040  0788 81            	ret
2041  0789               L356:
2042                     ; 143 							else if(BAT_P_Volt>=P_1){return 1;}
2044  0789 96            	ldw	x,sp
2045  078a 1c0003        	addw	x,#OFST+3
2046  078d cd0000        	call	c_ltor
2048  0790 ae018c        	ldw	x,#L413
2049  0793 cd0000        	call	c_lcmp
2051  0796 2503          	jrult	L756
2054  0798 a601          	ld	a,#1
2057  079a 81            	ret
2058  079b               L756:
2059                     ; 144 							else{return 0;}
2061  079b 4f            	clr	a
2064  079c 81            	ret
2065  079d               L743:
2066                     ; 148 }
2069  079d 81            	ret
2082                     	xdef	_BAT_Percentgauge_Check
2101                     	xref	c_lcmp
2102                     	xref	c_ltor
2103                     	end
